target datalayout = "e-m:e-p270:32:32-p271:32:32-p272:64:64-i64:64-i128:128-f80:128-n8:16:32:64-S128"
target triple = "x86_64-pc-linux-gnu"

%struct.SurfaceDataRasInfo = type { %struct.SurfaceDataBounds, ptr, i32, i32, i32, i32, ptr, ptr, ptr, ptr, ptr, ptr, i32, %union.anon.0 }
%struct.SurfaceDataBounds = type { i32, i32, i32, i32 }
%union.anon.0 = type { ptr, [56 x i8] }

; Function Attrs: nounwind uwtable
define hidden void @IntArgbToIndex12GrayScaleConvert(ptr noundef %0, ptr noundef %1, i32 noundef %2, i32 noundef %3, i32 noundef %4, i32 noundef %5, i32 noundef %6, i32 noundef %7, i32 noundef %8, ptr noundef %9, ptr noundef %10, ptr noundef %11, ptr noundef %12) #0 {
  %14 = alloca ptr, align 8
  %15 = alloca ptr, align 8
  %16 = alloca i32, align 4
  %17 = alloca i32, align 4
  %18 = alloca i32, align 4
  %19 = alloca i32, align 4
  %20 = alloca i32, align 4
  %21 = alloca i32, align 4
  %22 = alloca i32, align 4
  %23 = alloca ptr, align 8
  %24 = alloca ptr, align 8
  %25 = alloca ptr, align 8
  %26 = alloca ptr, align 8
  %27 = alloca ptr, align 8
  %28 = alloca ptr, align 8
  %29 = alloca ptr, align 8
  %30 = alloca i32, align 4
  %31 = alloca i32, align 4
  %32 = alloca i32, align 4
  %33 = alloca i32, align 4
  %34 = alloca i32, align 4
  %35 = alloca i32, align 4
  %36 = alloca i32, align 4
  %37 = alloca i32, align 4
  %38 = alloca i32, align 4
  %39 = alloca i32, align 4
  store ptr %0, ptr %14, align 8
  store ptr %1, ptr %15, align 8
  store i32 %2, ptr %16, align 4
  store i32 %3, ptr %17, align 4
  store i32 %4, ptr %18, align 4
  store i32 %5, ptr %19, align 4
  store i32 %6, ptr %20, align 4
  store i32 %7, ptr %21, align 4
  store i32 %8, ptr %22, align 4
  store ptr %9, ptr %23, align 8
  store ptr %10, ptr %24, align 8
  store ptr %11, ptr %25, align 8
  store ptr %12, ptr %26, align 8
  br label %40

40:                                               ; preds = %13
  %41 = load ptr, ptr %15, align 8
  store ptr %41, ptr %29, align 8
  %42 = load ptr, ptr %23, align 8
  %43 = getelementptr inbounds %struct.SurfaceDataRasInfo, ptr %42, i32 0, i32 4
  %44 = load i32, ptr %43, align 8
  store i32 %44, ptr %30, align 4
  %45 = load ptr, ptr %24, align 8
  %46 = getelementptr inbounds %struct.SurfaceDataRasInfo, ptr %45, i32 0, i32 4
  %47 = load i32, ptr %46, align 8
  store i32 %47, ptr %31, align 4
  %48 = load ptr, ptr %24, align 8
  %49 = getelementptr inbounds %struct.SurfaceDataRasInfo, ptr %48, i32 0, i32 11
  %50 = load ptr, ptr %49, align 8
  store ptr %50, ptr %27, align 8
  %51 = load i32, ptr %16, align 4
  %52 = mul i32 %51, 2
  %53 = load i32, ptr %31, align 4
  %54 = sub i32 %53, %52
  store i32 %54, ptr %31, align 4
  br label %55

55:                                               ; preds = %135, %40
  %56 = load i32, ptr %16, align 4
  store i32 %56, ptr %32, align 4
  %57 = load i32, ptr %18, align 4
  store i32 %57, ptr %33, align 4
  %58 = load ptr, ptr %14, align 8
  %59 = ptrtoint ptr %58 to i64
  %60 = load i32, ptr %19, align 4
  %61 = load i32, ptr %22, align 4
  %62 = ashr i32 %60, %61
  %63 = sext i32 %62 to i64
  %64 = load i32, ptr %30, align 4
  %65 = sext i32 %64 to i64
  %66 = mul nsw i64 %63, %65
  %67 = add nsw i64 %59, %66
  %68 = inttoptr i64 %67 to ptr
  store ptr %68, ptr %28, align 8
  br label %69

69:                                               ; preds = %121, %55
  %70 = load i32, ptr %33, align 4
  %71 = load i32, ptr %22, align 4
  %72 = ashr i32 %70, %71
  store i32 %72, ptr %34, align 4
  br label %73

73:                                               ; preds = %69
  br label %74

74:                                               ; preds = %73
  %75 = load ptr, ptr %28, align 8
  %76 = load i32, ptr %34, align 4
  %77 = sext i32 %76 to i64
  %78 = getelementptr inbounds i32, ptr %75, i64 %77
  %79 = load i32, ptr %78, align 4
  store i32 %79, ptr %38, align 4
  br label %80

80:                                               ; preds = %74
  %81 = load i32, ptr %38, align 4
  %82 = and i32 %81, 255
  store i32 %82, ptr %37, align 4
  %83 = load i32, ptr %38, align 4
  %84 = ashr i32 %83, 8
  %85 = and i32 %84, 255
  store i32 %85, ptr %36, align 4
  %86 = load i32, ptr %38, align 4
  %87 = ashr i32 %86, 16
  %88 = and i32 %87, 255
  store i32 %88, ptr %35, align 4
  br label %89

89:                                               ; preds = %80
  br label %90

90:                                               ; preds = %89
  br label %91

91:                                               ; preds = %90
  %92 = load i32, ptr %35, align 4
  %93 = mul nsw i32 77, %92
  %94 = load i32, ptr %36, align 4
  %95 = mul nsw i32 150, %94
  %96 = add nsw i32 %93, %95
  %97 = load i32, ptr %37, align 4
  %98 = mul nsw i32 29, %97
  %99 = add nsw i32 %96, %98
  %100 = add nsw i32 %99, 128
  %101 = sdiv i32 %100, 256
  %102 = trunc i32 %101 to i8
  %103 = zext i8 %102 to i32
  store i32 %103, ptr %39, align 4
  %104 = load ptr, ptr %27, align 8
  %105 = load i32, ptr %39, align 4
  %106 = sext i32 %105 to i64
  %107 = getelementptr inbounds i32, ptr %104, i64 %106
  %108 = load i32, ptr %107, align 4
  %109 = trunc i32 %108 to i16
  %110 = load ptr, ptr %29, align 8
  %111 = getelementptr inbounds i16, ptr %110, i64 0
  store i16 %109, ptr %111, align 2
  br label %112

112:                                              ; preds = %91
  br label %113

113:                                              ; preds = %112
  %114 = load ptr, ptr %29, align 8
  %115 = ptrtoint ptr %114 to i64
  %116 = add nsw i64 %115, 2
  %117 = inttoptr i64 %116 to ptr
  store ptr %117, ptr %29, align 8
  %118 = load i32, ptr %20, align 4
  %119 = load i32, ptr %33, align 4
  %120 = add nsw i32 %119, %118
  store i32 %120, ptr %33, align 4
  br label %121

121:                                              ; preds = %113
  %122 = load i32, ptr %32, align 4
  %123 = add i32 %122, -1
  store i32 %123, ptr %32, align 4
  %124 = icmp ugt i32 %123, 0
  br i1 %124, label %69, label %125, !llvm.loop !22

125:                                              ; preds = %121
  %126 = load ptr, ptr %29, align 8
  %127 = ptrtoint ptr %126 to i64
  %128 = load i32, ptr %31, align 4
  %129 = sext i32 %128 to i64
  %130 = add nsw i64 %127, %129
  %131 = inttoptr i64 %130 to ptr
  store ptr %131, ptr %29, align 8
  %132 = load i32, ptr %21, align 4
  %133 = load i32, ptr %19, align 4
  %134 = add nsw i32 %133, %132
  store i32 %134, ptr %19, align 4
  br label %135

135:                                              ; preds = %125
  %136 = load i32, ptr %17, align 4
  %137 = add i32 %136, -1
  store i32 %137, ptr %17, align 4
  %138 = icmp ugt i32 %137, 0
  br i1 %138, label %55, label %139, !llvm.loop !23

139:                                              ; preds = %135
  br label %140

140:                                              ; preds = %139
  ret void
}