; Function Attrs: nofree norecurse nosync nounwind memory(readwrite, inaccessiblemem: none) uwtable
define hidden void @IntArgbToIndex12GrayScaleConvert(ptr noundef %0, ptr noundef %1, i32 noundef %2, i32 noundef %3, i32 noundef %4, i32 noundef %5, i32 noundef %6, i32 noundef %7, i32 noundef %8, ptr nocapture noundef readonly %9, ptr nocapture noundef readonly %10, ptr nocapture readnone %11, ptr nocapture readnone %12) #0 {
  %14 = getelementptr inbounds i8, ptr %9, i64 32
  %15 = load i32, ptr %14, align 8
  %16 = getelementptr inbounds i8, ptr %10, i64 32
  %17 = load i32, ptr %16, align 8
  %18 = getelementptr inbounds i8, ptr %10, i64 80
  %19 = load ptr, ptr %18, align 8
  %20 = shl i32 %2, 1
  %21 = sub i32 %17, %20
  %22 = sext i32 %21 to i64
  %23 = ptrtoint ptr %0 to i64
  %24 = sext i32 %15 to i64
  br label %25

25:                                               ; preds = %57, %13
  %.034 = phi ptr [ %1, %13 ], [ %59, %57 ]
  %.033 = phi i32 [ %5, %13 ], [ %60, %57 ]
  %.0 = phi i32 [ %3, %13 ], [ %61, %57 ]
  %26 = ashr i32 %.033, %8
  %27 = sext i32 %26 to i64
  %28 = mul nsw i64 %27, %24
  %29 = add nsw i64 %28, %23
  %30 = inttoptr i64 %29 to ptr
  br label %31

31:                                               ; preds = %31, %25
  %.036 = phi i32 [ %4, %25 ], [ %55, %31 ]
  %.035 = phi i32 [ %2, %25 ], [ %56, %31 ]
  %.1 = phi ptr [ %.034, %25 ], [ %54, %31 ]
  %32 = ashr i32 %.036, %8
  %33 = sext i32 %32 to i64
  %34 = getelementptr inbounds i32, ptr %30, i64 %33
  %35 = load i32, ptr %34, align 4
  %36 = and i32 %35, 255
  %37 = lshr i32 %35, 8
  %38 = and i32 %37, 255
  %39 = lshr i32 %35, 16
  %40 = and i32 %39, 255
  %41 = mul nuw nsw i32 %40, 77
  %42 = mul nuw nsw i32 %38, 150
  %43 = mul nuw nsw i32 %36, 29
  %44 = add nuw nsw i32 %43, 128
  %45 = add nuw nsw i32 %44, %42
  %46 = add nuw nsw i32 %45, %41
  %47 = lshr i32 %46, 8
  %48 = zext nneg i32 %47 to i64
  %49 = getelementptr inbounds i32, ptr %19, i64 %48
  %50 = load i32, ptr %49, align 4
  %51 = trunc i32 %50 to i16
  store i16 %51, ptr %.1, align 2
  %52 = ptrtoint ptr %.1 to i64
  %53 = add nsw i64 %52, 2
  %54 = inttoptr i64 %53 to ptr
  %55 = add nsw i32 %.036, %6
  %56 = add i32 %.035, -1
  %.not = icmp eq i32 %56, 0
  br i1 %.not, label %57, label %31, !llvm.loop !22

57:                                               ; preds = %31
  %58 = add nsw i64 %53, %22
  %59 = inttoptr i64 %58 to ptr
  %60 = add nsw i32 %.033, %7
  %61 = add i32 %.0, -1
  %.not38 = icmp eq i32 %61, 0
  br i1 %.not38, label %62, label %25, !llvm.loop !23

62:                                               ; preds = %57
  ret void
}